(lp0
Vhttps://www.linkedin.com/in/masoncdm
p1
aVhttps://www.linkedin.com/in/masoncdm
p2
aVhttps://www.linkedin.com/in/masoncdm
p3
aNaNaNaNaNaVhttps://www.linkedin.com/in/david-storch-7464a098
p4
aNaVhttps://www.linkedin.com/in/john-bowman-097b266
p5
aNaNaNaVhttps://www.linkedin.com/in/mike-sharp-18232135/de
p6
aVhttps://www.linkedin.com/in/mike-sharp-18232135/de
p7
aVhttps://www.linkedin.com/in/michael-sharp-18232135
p8
aVhttps://www.linkedin.com/in/michael-sharp-18232135
p9
aVhttps://www.linkedin.com/in/rick-poulton-a819042
p10
aNaVhttps://www.linkedin.com/in/timothy-romenesko-447b06b0
p11
aNaNaVhttps://www.linkedin.com/in/bob-switz-b94504
p12
aVhttps://www.linkedin.com/in/bob-switz-b94504
p13
aVhttps://www.linkedin.com/in/gokul-hemmady-38187ab
p14
aVhttps://www.linkedin.com/in/gokul-hemmady-38187ab
p15
aVhttps://www.linkedin.com/in/gokul-hemmady-38187ab
p16
aVhttps://www.linkedin.com/in/gokul-hemmady-38187ab
p17
aNaVhttps://www.linkedin.com/in/james-mathews-9758457
p18
aNaNaNaNaNaVhttps://www.linkedin.com/in/jim-mathews-86886810
p19
aNaNaVhttps://www.linkedin.com/in/markpborman
p20
aVhttps://www.linkedin.com/in/markpborman
p21
aVhttps://www.linkedin.com/in/markpborman
p22
aVhttps://www.linkedin.com/in/markpborman
p23
aVhttps://www.linkedin.com/in/markpborman
p24
aNaVhttps://www.linkedin.com/in/markpborman
p25
aNaNaVhttps://www.linkedin.com/in/ralph-faison-14102299
p26
aVhttps://www.linkedin.com/in/bob-switz-b94504
p27
aVhttps://www.linkedin.com/in/bob-switz-b94504
p28
aVhttps://www.linkedin.com/in/bob-switz-b94504
p29
aNaNaNaNaNaVhttps://www.linkedin.com/in/bob-switz-b94504
p30
aVhttps://www.linkedin.com/in/bob-switz-b94504
p31
aVhttps://www.linkedin.com/in/benton-cook-10146353
p32
aVhttps://www.linkedin.com/in/benton-cook-10146353
p33
aVhttps://www.linkedin.com/in/benton-cook-10146353
p34
aVhttps://www.linkedin.com/in/edwardjprajzner
p35
aVhttps://www.linkedin.com/in/edwardjprajzner
p36
aVhttps://www.linkedin.com/in/jeff-lang-0ba4a410
p37
aVhttps://www.linkedin.com/in/jeffrey-lang-55397114
p38
aVhttps://www.linkedin.com/in/jeffrey-lang-55397114
p39
aVhttps://www.linkedin.com/in/jeffrey-lang-55397114
p40
aVhttps://www.linkedin.com/in/jeffrey-lang-55397114
p41
aVhttps://www.linkedin.com/in/jeffrey-lang-55397114
p42
aNaNaVhttps://www.linkedin.com/in/shawn-severson-1647986
p43
aVhttps://www.linkedin.com/in/shawn-severson-1647986
p44
aNaVhttps://www.linkedin.com/in/john-gilbertson-6b13b21b
p45
aVhttps://www.linkedin.com/in/john-gilbertson-6b13b21b
p46
aVhttps://www.linkedin.com/in/john-gilbertson-6b13b21b
p47
aVhttps://www.linkedin.com/in/john-gilbertson-6b13b21b
p48
aVhttps://www.linkedin.com/in/john-gilbertson-6b13b21b
p49
aVhttps://www.linkedin.com/in/john-gilbertson-6b13b21b
p50
aVhttps://www.linkedin.com/in/john-gilbertson-6b13b21b
p51
aVhttps://www.linkedin.com/in/john-gilbertson-6b13b21b
p52
aVhttps://www.linkedin.com/in/john-gilbertson-570b251a
p53
aVhttps://www.linkedin.com/in/john-gilbertson-570b251a
p54
aNaNaVhttps://www.linkedin.com/in/john-lawing-245a0b68
p55
aVhttps://www.linkedin.com/in/john-lawing-245a0b68
p56
aVhttps://www.linkedin.com/in/john-lawing-245a0b68
p57
aVhttps://www.linkedin.com/in/john-lawing-245a0b68
p58
aVhttps://www.linkedin.com/in/john-lawing-245a0b68
p59
aVhttps://www.linkedin.com/in/john-gilbertson-6b13b21b
p60
aVhttps://www.linkedin.com/in/john-gilbertson-6b13b21b
p61
aVhttps://www.linkedin.com/in/john-gilbertson-6b13b21b
p62
aVhttps://www.linkedin.com/in/john-gilbertson-ba11668
p63
aVhttps://www.linkedin.com/in/john-gilbertson-ba11668
p64
aVhttps://www.linkedin.com/in/kurt-cummings-9989b11
p65
aVhttps://www.linkedin.com/in/kurt-cummings-9989b11
p66
aVhttps://www.linkedin.com/in/kurt-cummings-9989b11
p67
aVhttps://www.linkedin.com/in/kurt-cummings-9989b11
p68
aVhttps://www.linkedin.com/in/kurt-cummings-9989b11
p69
aVhttps://www.linkedin.com/in/kurt-cummings-9989b11
p70
aVhttps://www.linkedin.com/in/kurt-cummings-9989b11
p71
aVhttps://www.linkedin.com/in/kurt-cummings-9989b11
p72
aVhttps://www.linkedin.com/in/kurt-cummings-9989b11
p73
aNaNaNaVhttps://www.linkedin.com/in/kurt-cummings-9989b11
p74
aNaNaNaNaNaNaNaVhttps://www.linkedin.com/in/rebecca-hickman-3a765712
p75
aVhttps://www.linkedin.com/in/rebecca-hickman-3a765712
p76
aNaNaNaVhttps://www.linkedin.com/in/bill-paukovitz-97487110
p77
aVhttps://www.linkedin.com/in/bill-paukovitz-97487110
p78
aVhttps://www.linkedin.com/in/don-brandt-b25bb422
p79
aVhttps://www.linkedin.com/in/don-brandt-b25bb422
p80
aNaNaNaNaNaNaVhttps://www.linkedin.com/in/don-brandt-b25bb422
p81
aVhttps://www.linkedin.com/in/don-brandt-b25bb422
p82
aNaNaNaNaNaNaVhttps://www.linkedin.com/in/michaelcovarrubias
p83
aNaNaNaNaVhttps://www.linkedin.com/in/donald-brandt-2b707715
p84
aVhttps://www.linkedin.com/in/donald-brandt-2b707715
p85
aVhttps://www.linkedin.com/in/donald-brandt-2b707715
p86
aVhttps://www.linkedin.com/in/donald-brandt-2b707715
p87
aVhttps://www.linkedin.com/in/donald-brandt-2b707715
p88
aVhttps://www.linkedin.com/in/donald-brandt-2b707715
p89
aVhttps://www.linkedin.com/in/donald-brandt-2b707715
p90
aVhttps://www.linkedin.com/in/donald-brandt-2b707715
p91
aVhttps://www.linkedin.com/in/donald-brandt-2b707715
p92
aNaNaNaNaNaNaNaVhttps://www.linkedin.com/in/jack-davis-49b16167
p93
aVhttps://www.linkedin.com/in/ajackdavis17
p94
aNaNaNaNaVhttps://www.linkedin.com/in/james-hatfield-0644376
p95
aVhttps://www.linkedin.com/in/james-hatfield-0644376
p96
aVhttps://www.linkedin.com/in/james-hatfield-0644376
p97
aVhttps://www.linkedin.com/in/james-hatfield-0644376
p98
aVhttps://www.linkedin.com/in/james-hatfield-0644376
p99
aNaVhttps://www.linkedin.com/in/james-hatfield-0644376
p100
aVhttps://www.linkedin.com/in/james-hatfield-0644376
p101
aNaNaNaVhttps://www.linkedin.com/in/jeff-guldner-5b17879
p102
aVhttps://www.linkedin.com/in/jeff-guldner-5b17879
p103
aNaNaVhttps://www.linkedin.com/in/jeff-guldner-5b17879
p104
aVhttps://www.linkedin.com/in/jeff-guldner-5b17879
p105
aVhttps://www.linkedin.com/in/jeff-guldner-5b17879
p106
aVhttps://www.linkedin.com/in/jim-hatfield-b2456115
p107
aVhttps://www.linkedin.com/in/jim-hatfield-b2456115
p108
aVhttps://www.linkedin.com/in/jim-hatfield-b2456115
p109
aNaNaNaNaNaNaVhttps://www.linkedin.com/in/paulmountain
p110
aVhttps://www.linkedin.com/in/paulmountain
p111
aVhttps://www.linkedin.com/in/paulmountain
p112
aVhttps://www.linkedin.com/in/paulmountain
p113
aVhttps://www.linkedin.com/in/rebecca-hickman-3a765712
p114
aVhttps://www.linkedin.com/in/rebecca-hickman-3a765712
p115
aVhttps://www.linkedin.com/in/rebecca-hickman-3a765712
p116
a.